ccopy_reg
_reconstructor
p1
(cnltk.probability
LidstoneProbDist
p2
c__builtin__
object
p3
NtRp4
(dp5
S'_gamma'
p6
F0.001
sS'_N'
p7
I17231
sS'_freqdist'
p8
g1
(cnltk.probability
FreqDist
p9
c__builtin__
dict
p10
(dp11
VJJ+DL+PM
p12
I2
sVAB+NN+JJ
p13
I34
sVAB+PP
p14
I12
sVPM+DL+JJ+NN
p15
I1
sVNN+JJ
p16
I738
sVNN+NN+AB+NN
p17
I10
sVAB+IN
p18
I2
sVPN+PP+JJ
p19
I1
sVNN+DL+JJ
p20
I5
sVJJ+AB+NN
p21
I6
sVPN+JJ
p22
I20
sVJJ+DL+NN+NN
p23
I2
sVRG+JJ
p24
I10
sVAB+AB+JJ
p25
I4
sVJJ+AB+VB
p26
I1
sVNN+NN+NN+NN
p27
I9
sVJJ+JJ+NN
p28
I2
sVPP+NN+NN
p29
I17
sVNN+PP+NN
p30
I25
sVJJ+NN+NN+NN
p31
I2
sVJJ+DL+JJ
p32
I4
sVNN+DL+NN
p33
I146
sVPP+JJ
p34
I20
sVIN+IN
p35
I3
sVNN+RG
p36
I1
sVAB+AB+AB
p37
I2
sVPM+DL+PM
p38
I2
sVAB+PP+NN
p39
I2
sVVB+NN+JJ
p40
I2
sVPM+DL+NN+NN
p41
I2
sVNN+AB+PM
p42
I1
sVJJ+NN+AB+JJ
p43
I1
sVIN+AB
p44
I4
sVJJ+PP+NN
p45
I2
sVNN+DL+AB+NN
p46
I1
sVNN+NN+JJ
p47
I12
sVRG+RG+NN
p48
I2
sVPP+AB+NN
p49
I1
sVRG+NN+NN
p50
I35
sVNN+JJ+JJ
p51
I1
sVNN+DL+NN+NN
p52
I5
sVAB+NN+AB+NN
p53
I8
sVJJ+AB
p54
I14
sVNN+NN+PP
p55
I1
sVAB+KN
p56
I3
sVNN+NN+PM
p57
I1
sVPP+NN+VB
p58
I9
sVAB+JJ+NN
p59
I10
sVPP+NN+JJ
p60
I9
sVRG+RG+RG
p61
I1
sVNN+AB+NN
p62
I85
sVNN+VB+NN
p63
I3
sVPM+NN
p64
I3
sVDT+NN+NN
p65
I6
sVAB+PM+NN+JJ
p66
I1
sVAB+NN+DL+NN
p67
I1
sVNN+DL+JJ+NN
p68
I5
sVAB+AB
p69
I84
sVPN+AB
p70
I2
sVAB+JJ
p71
I739
sVPM+DL+AB+NN
p72
I1
sVPN+PN
p73
I2
sVNN+AB+VB
p74
I7
sVJJ+NN
p75
I851
sVPN+NN+NN
p76
I12
sVVB+JJ
p77
I25
sVNN+NN+DL+NN
p78
I2
sVNN+DL
p79
I3
sVVB+DL+AB
p80
I1
sVJJ+NN+NN+NN+NN
p81
I1
sVNN+NN+NN
p82
I723
sVVB+NN+AB+NN
p83
I1
sVAB+AB+AB+AB
p84
I1
sVNN+NN+VB
p85
I1
sVJJ+AB+JJ
p86
I5
sVNN+NN
p87
I8798
sVAB+NN+VB
p88
I8
sVIN+NN
p89
I2
sVNN+VB+NN+NN
p90
I1
sVAB+NN+AB
p91
I3
sVJJ+JJ+JJ
p92
I1
sVRG+NN
p93
I83
sVNN+AB
p94
I42
sVAB+AB+NN
p95
I17
sVNN+NN+NN+JJ
p96
I1
sVPP+NN
p97
I82
sVPP+NN+AB
p98
I1
sVNN+VB
p99
I162
sVAB+NN+NN
p100
I166
sVJJ+DL+NN
p101
I6
sVVB+VB+NN
p102
I1
sVAB+PP+JJ
p103
I1
sVVB+NN+NN
p104
I60
sVPP+VB
p105
I66
sVJJ+NN+AB+NN
p106
I3
sVJJ+NN+DL
p107
I1
sVPP+AB
p108
I6
sVPN+VB
p109
I2
sVPN+NN
p110
I37
sVJJ+PP+JJ
p111
I1
sVRG+RG+JJ
p112
I1
sVNN+AB+NN+NN
p113
I1
sVJJ+PM
p114
I3
sVAB+AB+VB
p115
I21
sVDT+NN
p116
I1
sVVB+VB
p117
I10
sVAB+VB+NN
p118
I5
sVVB+AB
p119
I3
sVRG+RG
p120
I19
sVNN+JJ+NN
p121
I28
sVNN+NN+JJ+NN
p122
I1
sVVB+DL+PP+DL+NN
p123
I1
sVIN+DL+NN
p124
I3
sVAB+NN+NN+NN
p125
I1
sVJJ+NN+NN+DL+NN
p126
I1
sVDT+PN
p127
I2
sVAB+JJ+JJ
p128
I1
sVNN+AB+JJ
p129
I8
sVJJ+NN+NN
p130
I183
sVAB+PM
p131
I8
sVPP+VB+JJ
p132
I1
sVAB+PN
p133
I3
sVKN+AB
p134
I1
sVNN+PN
p135
I1
sVPP+PP
p136
I7
sVNN+PM
p137
I17
sVJJ+AB+AB
p138
I1
sVAB+VB
p139
I1557
sVNN+DL+NN+DL+NN
p140
I1
sVVB+JJ+NN
p141
I1
sVPN+RG+NN
p142
I1
sVVB+NN+NN+NN
p143
I4
sVPP+PM
p144
I1
sVVB+AB+JJ
p145
I1
sVJJ+JJ
p146
I325
sVAB+VB+JJ
p147
I2
sVVB+NN
p148
I324
sVAB+NN
p149
I1104
sVJJ+NN+JJ
p150
I9
sVIN+KN
p151
I1
sVNN+DL+PM
p152
I4
sVJJ+VB
p153
I132
sVNN+NN+DL
p154
I1
sVAB+AB+PP
p155
I1
sVRG+VB
p156
I2
sVPM+DL+NN
p157
I104
stRp158
(dp159
g7
I17231
sS'_max_cache'
p160
NsS'_item_cache'
p161
NsS'_Nr_cache'
p162
NsbsS'_bins'
p163
I146
sS'_divisor'
p164
F17231.146000000001
sb.